; ModuleID = '35/788.c'
source_filename = "35/788.c"
target datalayout = "e-m:e-p270:32:32-p271:32:32-p272:64:64-i64:64-f80:128-n8:16:32:64-S128"
target triple = "x86_64-pc-linux-gnu"

@.str = private unnamed_addr constant [6 x i8] c"%d,%d\00", align 1
@.str.1 = private unnamed_addr constant [3 x i8] c"%d\00", align 1
@.str.2 = private unnamed_addr constant [6 x i8] c"%d+%d\00", align 1
@.str.3 = private unnamed_addr constant [3 x i8] c"No\00", align 1

; Function Attrs: noinline nounwind uwtable
define dso_local i32 @main() #0 {
  %1 = alloca i32, align 4
  %2 = alloca i32, align 4
  %3 = alloca i32, align 4
  %4 = alloca [8 x [8 x i32]], align 16
  %5 = alloca [8 x i32], align 16
  %6 = alloca [8 x i32], align 16
  %7 = alloca [8 x i32], align 16
  %8 = alloca [8 x i32], align 16
  %9 = alloca i32, align 4
  %10 = alloca i32, align 4
  %11 = alloca i32, align 4
  %12 = alloca i32, align 4
  %13 = alloca i32, align 4
  %14 = alloca i32, align 4
  %15 = alloca i32, align 4
  %16 = alloca i32, align 4
  %17 = alloca i32, align 4
  %18 = alloca i32, align 4
  %19 = alloca i32, align 4
  store i32 0, i32* %1, align 4
  store i32 0, i32* %9, align 4
  store i32 0, i32* %10, align 4
  store i32 0, i32* %11, align 4
  %20 = call i32 (i8*, ...) @__isoc99_scanf(i8* getelementptr inbounds ([6 x i8], [6 x i8]* @.str, i64 0, i64 0), i32* %2, i32* %3)
  store i32 0, i32* %12, align 4
  br label %21

21:                                               ; preds = %42, %0
  %22 = load i32, i32* %12, align 4
  %23 = load i32, i32* %2, align 4
  %24 = icmp slt i32 %22, %23
  br i1 %24, label %25, label %45

25:                                               ; preds = %21
  store i32 0, i32* %13, align 4
  br label %26

26:                                               ; preds = %38, %25
  %27 = load i32, i32* %13, align 4
  %28 = load i32, i32* %3, align 4
  %29 = icmp slt i32 %27, %28
  br i1 %29, label %30, label %41

30:                                               ; preds = %26
  %31 = load i32, i32* %12, align 4
  %32 = sext i32 %31 to i64
  %33 = getelementptr inbounds [8 x [8 x i32]], [8 x [8 x i32]]* %4, i64 0, i64 %32
  %34 = load i32, i32* %13, align 4
  %35 = sext i32 %34 to i64
  %36 = getelementptr inbounds [8 x i32], [8 x i32]* %33, i64 0, i64 %35
  %37 = call i32 (i8*, ...) @__isoc99_scanf(i8* getelementptr inbounds ([3 x i8], [3 x i8]* @.str.1, i64 0, i64 0), i32* %36)
  br label %38

38:                                               ; preds = %30
  %39 = load i32, i32* %13, align 4
  %40 = add nsw i32 %39, 1
  store i32 %40, i32* %13, align 4
  br label %26

41:                                               ; preds = %26
  br label %42

42:                                               ; preds = %41
  %43 = load i32, i32* %12, align 4
  %44 = add nsw i32 %43, 1
  store i32 %44, i32* %12, align 4
  br label %21

45:                                               ; preds = %21
  store i32 0, i32* %14, align 4
  br label %46

46:                                               ; preds = %88, %45
  %47 = load i32, i32* %14, align 4
  %48 = load i32, i32* %2, align 4
  %49 = icmp slt i32 %47, %48
  br i1 %49, label %50, label %91

50:                                               ; preds = %46
  store i32 0, i32* %15, align 4
  store i32 0, i32* %16, align 4
  br label %51

51:                                               ; preds = %82, %50
  %52 = load i32, i32* %16, align 4
  %53 = load i32, i32* %2, align 4
  %54 = icmp slt i32 %52, %53
  br i1 %54, label %55, label %85

55:                                               ; preds = %51
  %56 = load i32, i32* %14, align 4
  %57 = sext i32 %56 to i64
  %58 = getelementptr inbounds [8 x [8 x i32]], [8 x [8 x i32]]* %4, i64 0, i64 %57
  %59 = load i32, i32* %16, align 4
  %60 = sext i32 %59 to i64
  %61 = getelementptr inbounds [8 x i32], [8 x i32]* %58, i64 0, i64 %60
  %62 = load i32, i32* %61, align 4
  %63 = load i32, i32* %15, align 4
  %64 = icmp sgt i32 %62, %63
  br i1 %64, label %65, label %81

65:                                               ; preds = %55
  %66 = load i32, i32* %14, align 4
  %67 = sext i32 %66 to i64
  %68 = getelementptr inbounds [8 x [8 x i32]], [8 x [8 x i32]]* %4, i64 0, i64 %67
  %69 = load i32, i32* %16, align 4
  %70 = sext i32 %69 to i64
  %71 = getelementptr inbounds [8 x i32], [8 x i32]* %68, i64 0, i64 %70
  %72 = load i32, i32* %71, align 4
  store i32 %72, i32* %15, align 4
  %73 = load i32, i32* %14, align 4
  %74 = load i32, i32* %9, align 4
  %75 = sext i32 %74 to i64
  %76 = getelementptr inbounds [8 x i32], [8 x i32]* %5, i64 0, i64 %75
  store i32 %73, i32* %76, align 4
  %77 = load i32, i32* %16, align 4
  %78 = load i32, i32* %9, align 4
  %79 = sext i32 %78 to i64
  %80 = getelementptr inbounds [8 x i32], [8 x i32]* %6, i64 0, i64 %79
  store i32 %77, i32* %80, align 4
  br label %81

81:                                               ; preds = %65, %55
  br label %82

82:                                               ; preds = %81
  %83 = load i32, i32* %16, align 4
  %84 = add nsw i32 %83, 1
  store i32 %84, i32* %16, align 4
  br label %51

85:                                               ; preds = %51
  %86 = load i32, i32* %9, align 4
  %87 = add nsw i32 %86, 1
  store i32 %87, i32* %9, align 4
  br label %88

88:                                               ; preds = %85
  %89 = load i32, i32* %14, align 4
  %90 = add nsw i32 %89, 1
  store i32 %90, i32* %14, align 4
  br label %46

91:                                               ; preds = %46
  store i32 0, i32* %17, align 4
  br label %92

92:                                               ; preds = %134, %91
  %93 = load i32, i32* %17, align 4
  %94 = load i32, i32* %3, align 4
  %95 = icmp slt i32 %93, %94
  br i1 %95, label %96, label %137

96:                                               ; preds = %92
  store i32 100000, i32* %18, align 4
  store i32 0, i32* %19, align 4
  br label %97

97:                                               ; preds = %128, %96
  %98 = load i32, i32* %19, align 4
  %99 = load i32, i32* %2, align 4
  %100 = icmp slt i32 %98, %99
  br i1 %100, label %101, label %131

101:                                              ; preds = %97
  %102 = load i32, i32* %19, align 4
  %103 = sext i32 %102 to i64
  %104 = getelementptr inbounds [8 x [8 x i32]], [8 x [8 x i32]]* %4, i64 0, i64 %103
  %105 = load i32, i32* %17, align 4
  %106 = sext i32 %105 to i64
  %107 = getelementptr inbounds [8 x i32], [8 x i32]* %104, i64 0, i64 %106
  %108 = load i32, i32* %107, align 4
  %109 = load i32, i32* %18, align 4
  %110 = icmp slt i32 %108, %109
  br i1 %110, label %111, label %127

111:                                              ; preds = %101
  %112 = load i32, i32* %19, align 4
  %113 = sext i32 %112 to i64
  %114 = getelementptr inbounds [8 x [8 x i32]], [8 x [8 x i32]]* %4, i64 0, i64 %113
  %115 = load i32, i32* %17, align 4
  %116 = sext i32 %115 to i64
  %117 = getelementptr inbounds [8 x i32], [8 x i32]* %114, i64 0, i64 %116
  %118 = load i32, i32* %117, align 4
  store i32 %118, i32* %18, align 4
  %119 = load i32, i32* %19, align 4
  %120 = load i32, i32* %10, align 4
  %121 = sext i32 %120 to i64
  %122 = getelementptr inbounds [8 x i32], [8 x i32]* %7, i64 0, i64 %121
  store i32 %119, i32* %122, align 4
  %123 = load i32, i32* %17, align 4
  %124 = load i32, i32* %10, align 4
  %125 = sext i32 %124 to i64
  %126 = getelementptr inbounds [8 x i32], [8 x i32]* %8, i64 0, i64 %125
  store i32 %123, i32* %126, align 4
  br label %127

127:                                              ; preds = %111, %101
  br label %128

128:                                              ; preds = %127
  %129 = load i32, i32* %19, align 4
  %130 = add nsw i32 %129, 1
  store i32 %130, i32* %19, align 4
  br label %97

131:                                              ; preds = %97
  %132 = load i32, i32* %10, align 4
  %133 = add nsw i32 %132, 1
  store i32 %133, i32* %10, align 4
  br label %134

134:                                              ; preds = %131
  %135 = load i32, i32* %17, align 4
  %136 = add nsw i32 %135, 1
  store i32 %136, i32* %17, align 4
  br label %92

137:                                              ; preds = %92
  store i32 0, i32* %9, align 4
  br label %138

138:                                              ; preds = %184, %137
  %139 = load i32, i32* %9, align 4
  %140 = load i32, i32* %2, align 4
  %141 = icmp slt i32 %139, %140
  br i1 %141, label %142, label %187

142:                                              ; preds = %138
  store i32 0, i32* %10, align 4
  br label %143

143:                                              ; preds = %180, %142
  %144 = load i32, i32* %10, align 4
  %145 = load i32, i32* %3, align 4
  %146 = icmp slt i32 %144, %145
  br i1 %146, label %147, label %183

147:                                              ; preds = %143
  %148 = load i32, i32* %9, align 4
  %149 = sext i32 %148 to i64
  %150 = getelementptr inbounds [8 x i32], [8 x i32]* %5, i64 0, i64 %149
  %151 = load i32, i32* %150, align 4
  %152 = load i32, i32* %10, align 4
  %153 = sext i32 %152 to i64
  %154 = getelementptr inbounds [8 x i32], [8 x i32]* %7, i64 0, i64 %153
  %155 = load i32, i32* %154, align 4
  %156 = icmp eq i32 %151, %155
  br i1 %156, label %157, label %179

157:                                              ; preds = %147
  %158 = load i32, i32* %9, align 4
  %159 = sext i32 %158 to i64
  %160 = getelementptr inbounds [8 x i32], [8 x i32]* %6, i64 0, i64 %159
  %161 = load i32, i32* %160, align 4
  %162 = load i32, i32* %10, align 4
  %163 = sext i32 %162 to i64
  %164 = getelementptr inbounds [8 x i32], [8 x i32]* %8, i64 0, i64 %163
  %165 = load i32, i32* %164, align 4
  %166 = icmp eq i32 %161, %165
  br i1 %166, label %167, label %179

167:                                              ; preds = %157
  %168 = load i32, i32* %9, align 4
  %169 = sext i32 %168 to i64
  %170 = getelementptr inbounds [8 x i32], [8 x i32]* %5, i64 0, i64 %169
  %171 = load i32, i32* %170, align 4
  %172 = load i32, i32* %9, align 4
  %173 = sext i32 %172 to i64
  %174 = getelementptr inbounds [8 x i32], [8 x i32]* %6, i64 0, i64 %173
  %175 = load i32, i32* %174, align 4
  %176 = call i32 (i8*, ...) @printf(i8* getelementptr inbounds ([6 x i8], [6 x i8]* @.str.2, i64 0, i64 0), i32 %171, i32 %175)
  %177 = load i32, i32* %11, align 4
  %178 = add nsw i32 %177, 1
  store i32 %178, i32* %11, align 4
  br label %179

179:                                              ; preds = %167, %157, %147
  br label %180

180:                                              ; preds = %179
  %181 = load i32, i32* %10, align 4
  %182 = add nsw i32 %181, 1
  store i32 %182, i32* %10, align 4
  br label %143

183:                                              ; preds = %143
  br label %184

184:                                              ; preds = %183
  %185 = load i32, i32* %9, align 4
  %186 = add nsw i32 %185, 1
  store i32 %186, i32* %9, align 4
  br label %138

187:                                              ; preds = %138
  %188 = load i32, i32* %11, align 4
  %189 = icmp eq i32 %188, 0
  br i1 %189, label %190, label %192

190:                                              ; preds = %187
  %191 = call i32 (i8*, ...) @printf(i8* getelementptr inbounds ([3 x i8], [3 x i8]* @.str.3, i64 0, i64 0))
  br label %192

192:                                              ; preds = %190, %187
  ret i32 0
}

declare dso_local i32 @__isoc99_scanf(i8*, ...) #1

declare dso_local i32 @printf(i8*, ...) #1


!llvm.module.flags = !{!0}
!llvm.ident = !{!1}

!0 = !{i32 1, !"wchar_size", i32 4}
!1 = !{!"clang version 10.0.0-4ubuntu1 "}
